
./scale:     file format elf64-x86-64

Disassembly of section .init:

00000000004004c0 <_init>:
  4004c0:	48 83 ec 08          	sub    $0x8,%rsp
  4004c4:	e8 b3 00 00 00       	callq  40057c <call_gmon_start>
  4004c9:	e8 32 01 00 00       	callq  400600 <frame_dummy>
  4004ce:	e8 ad 03 00 00       	callq  400880 <__do_global_ctors_aux>
  4004d3:	48 83 c4 08          	add    $0x8,%rsp
  4004d7:	c3                   	retq   
Disassembly of section .plt:

00000000004004d8 <printf@plt-0x10>:
  4004d8:	ff 35 32 07 20 00    	pushq  2098994(%rip)        # 600c10 <_GLOBAL_OFFSET_TABLE_+0x8>
  4004de:	ff 25 34 07 20 00    	jmpq   *2098996(%rip)        # 600c18 <_GLOBAL_OFFSET_TABLE_+0x10>
  4004e4:	0f 1f 40 00          	nopl   0x0(%rax)

00000000004004e8 <printf@plt>:
  4004e8:	ff 25 32 07 20 00    	jmpq   *2098994(%rip)        # 600c20 <_GLOBAL_OFFSET_TABLE_+0x18>
  4004ee:	68 00 00 00 00       	pushq  $0x0
  4004f3:	e9 e0 ff ff ff       	jmpq   4004d8 <_init+0x18>

00000000004004f8 <gettimeofday@plt>:
  4004f8:	ff 25 2a 07 20 00    	jmpq   *2098986(%rip)        # 600c28 <_GLOBAL_OFFSET_TABLE_+0x20>
  4004fe:	68 01 00 00 00       	pushq  $0x1
  400503:	e9 d0 ff ff ff       	jmpq   4004d8 <_init+0x18>

0000000000400508 <malloc@plt>:
  400508:	ff 25 22 07 20 00    	jmpq   *2098978(%rip)        # 600c30 <_GLOBAL_OFFSET_TABLE_+0x28>
  40050e:	68 02 00 00 00       	pushq  $0x2
  400513:	e9 c0 ff ff ff       	jmpq   4004d8 <_init+0x18>

0000000000400518 <__libc_start_main@plt>:
  400518:	ff 25 1a 07 20 00    	jmpq   *2098970(%rip)        # 600c38 <_GLOBAL_OFFSET_TABLE_+0x30>
  40051e:	68 03 00 00 00       	pushq  $0x3
  400523:	e9 b0 ff ff ff       	jmpq   4004d8 <_init+0x18>

0000000000400528 <free@plt>:
  400528:	ff 25 12 07 20 00    	jmpq   *2098962(%rip)        # 600c40 <_GLOBAL_OFFSET_TABLE_+0x38>
  40052e:	68 04 00 00 00       	pushq  $0x4
  400533:	e9 a0 ff ff ff       	jmpq   4004d8 <_init+0x18>

0000000000400538 <atoi@plt>:
  400538:	ff 25 0a 07 20 00    	jmpq   *2098954(%rip)        # 600c48 <_GLOBAL_OFFSET_TABLE_+0x40>
  40053e:	68 05 00 00 00       	pushq  $0x5
  400543:	e9 90 ff ff ff       	jmpq   4004d8 <_init+0x18>
Disassembly of section .text:

0000000000400550 <_start>:
  400550:	31 ed                	xor    %ebp,%ebp
  400552:	49 89 d1             	mov    %rdx,%r9
  400555:	5e                   	pop    %rsi
  400556:	48 89 e2             	mov    %rsp,%rdx
  400559:	48 83 e4 f0          	and    $0xfffffffffffffff0,%rsp
  40055d:	50                   	push   %rax
  40055e:	54                   	push   %rsp
  40055f:	49 c7 c0 e0 07 40 00 	mov    $0x4007e0,%r8
  400566:	48 c7 c1 f0 07 40 00 	mov    $0x4007f0,%rcx
  40056d:	48 c7 c7 62 06 40 00 	mov    $0x400662,%rdi
  400574:	e8 9f ff ff ff       	callq  400518 <__libc_start_main@plt>
  400579:	f4                   	hlt    
  40057a:	90                   	nop    
  40057b:	90                   	nop    

000000000040057c <call_gmon_start>:
  40057c:	48 83 ec 08          	sub    $0x8,%rsp
  400580:	48 8b 05 79 06 20 00 	mov    2098809(%rip),%rax        # 600c00 <_DYNAMIC+0x1c0>
  400587:	48 85 c0             	test   %rax,%rax
  40058a:	74 02                	je     40058e <call_gmon_start+0x12>
  40058c:	ff d0                	callq  *%rax
  40058e:	48 83 c4 08          	add    $0x8,%rsp
  400592:	c3                   	retq   
  400593:	90                   	nop    
  400594:	90                   	nop    
  400595:	90                   	nop    
  400596:	90                   	nop    
  400597:	90                   	nop    
  400598:	90                   	nop    
  400599:	90                   	nop    
  40059a:	90                   	nop    
  40059b:	90                   	nop    
  40059c:	90                   	nop    
  40059d:	90                   	nop    
  40059e:	90                   	nop    
  40059f:	90                   	nop    

00000000004005a0 <__do_global_dtors_aux>:
  4005a0:	55                   	push   %rbp
  4005a1:	48 89 e5             	mov    %rsp,%rbp
  4005a4:	53                   	push   %rbx
  4005a5:	48 83 ec 08          	sub    $0x8,%rsp
  4005a9:	80 3d b0 06 20 00 00 	cmpb   $0x0,2098864(%rip)        # 600c60 <completed.6145>
  4005b0:	75 44                	jne    4005f6 <__do_global_dtors_aux+0x56>
  4005b2:	b8 30 0a 60 00       	mov    $0x600a30,%eax
  4005b7:	48 2d 28 0a 60 00    	sub    $0x600a28,%rax
  4005bd:	48 c1 f8 03          	sar    $0x3,%rax
  4005c1:	48 8d 58 ff          	lea    0xffffffffffffffff(%rax),%rbx
  4005c5:	48 8b 05 8c 06 20 00 	mov    2098828(%rip),%rax        # 600c58 <dtor_idx.6147>
  4005cc:	48 39 c3             	cmp    %rax,%rbx
  4005cf:	76 1e                	jbe    4005ef <__do_global_dtors_aux+0x4f>
  4005d1:	48 83 c0 01          	add    $0x1,%rax
  4005d5:	48 89 05 7c 06 20 00 	mov    %rax,2098812(%rip)        # 600c58 <dtor_idx.6147>
  4005dc:	ff 14 c5 28 0a 60 00 	callq  *0x600a28(,%rax,8)
  4005e3:	48 8b 05 6e 06 20 00 	mov    2098798(%rip),%rax        # 600c58 <dtor_idx.6147>
  4005ea:	48 39 c3             	cmp    %rax,%rbx
  4005ed:	77 e2                	ja     4005d1 <__do_global_dtors_aux+0x31>
  4005ef:	c6 05 6a 06 20 00 01 	movb   $0x1,2098794(%rip)        # 600c60 <completed.6145>
  4005f6:	48 83 c4 08          	add    $0x8,%rsp
  4005fa:	5b                   	pop    %rbx
  4005fb:	c9                   	leaveq 
  4005fc:	c3                   	retq   
  4005fd:	0f 1f 00             	nopl   (%rax)

0000000000400600 <frame_dummy>:
  400600:	55                   	push   %rbp
  400601:	48 83 3d 2f 04 20 00 	cmpq   $0x0,2098223(%rip)        # 600a38 <__JCR_END__>
  400608:	00 
  400609:	48 89 e5             	mov    %rsp,%rbp
  40060c:	74 16                	je     400624 <frame_dummy+0x24>
  40060e:	b8 00 00 00 00       	mov    $0x0,%eax
  400613:	48 85 c0             	test   %rax,%rax
  400616:	74 0c                	je     400624 <frame_dummy+0x24>
  400618:	bf 38 0a 60 00       	mov    $0x600a38,%edi
  40061d:	49 89 c3             	mov    %rax,%r11
  400620:	c9                   	leaveq 
  400621:	41 ff e3             	jmpq   *%r11
  400624:	c9                   	leaveq 
  400625:	c3                   	retq   
  400626:	90                   	nop    
  400627:	90                   	nop    

0000000000400628 <gettime>:
  400628:	55                   	push   %rbp
  400629:	48 89 e5             	mov    %rsp,%rbp
  40062c:	48 83 ec 10          	sub    $0x10,%rsp
  400630:	48 8d 45 f0          	lea    0xfffffffffffffff0(%rbp),%rax
  400634:	48 89 c7             	mov    %rax,%rdi
  400637:	33 f6                	xor    %esi,%esi
  400639:	e8 ba fe ff ff       	callq  4004f8 <gettimeofday@plt>
  40063e:	48 8b 45 f0          	mov    0xfffffffffffffff0(%rbp),%rax
  400642:	f2 48 0f 2a c0       	cvtsi2sdq %rax,%xmm0
  400647:	f2 0f 10 0d 89 02 00 	movsd  649(%rip),%xmm1        # 4008d8 <_2il0floatpacket.0>
  40064e:	00 
  40064f:	48 8b 45 f8          	mov    0xfffffffffffffff8(%rbp),%rax
  400653:	f2 48 0f 2a d0       	cvtsi2sdq %rax,%xmm2
  400658:	f2 0f 59 ca          	mulsd  %xmm2,%xmm1
  40065c:	f2 0f 58 c1          	addsd  %xmm1,%xmm0
  400660:	c9                   	leaveq 
  400661:	c3                   	retq   

0000000000400662 <main>:
  400662:	55                   	push   %rbp
  400663:	48 89 e5             	mov    %rsp,%rbp
  400666:	48 83 ec 50          	sub    $0x50,%rsp
  40066a:	89 7d f0             	mov    %edi,0xfffffffffffffff0(%rbp)
  40066d:	48 89 75 b0          	mov    %rsi,0xffffffffffffffb0(%rbp)
  400671:	48 8b 45 b0          	mov    0xffffffffffffffb0(%rbp),%rax
  400675:	48 8b 40 08          	mov    0x8(%rax),%rax
  400679:	48 89 c7             	mov    %rax,%rdi
  40067c:	e8 b7 fe ff ff       	callq  400538 <atoi@plt>
  400681:	89 45 ec             	mov    %eax,0xffffffffffffffec(%rbp)
  400684:	8b 45 ec             	mov    0xffffffffffffffec(%rbp),%eax
  400687:	89 45 e0             	mov    %eax,0xffffffffffffffe0(%rbp)
  40068a:	8b 45 e0             	mov    0xffffffffffffffe0(%rbp),%eax
  40068d:	0f af 45 e0          	imul   0xffffffffffffffe0(%rbp),%eax
  400691:	48 63 c0             	movslq %eax,%rax
  400694:	48 c1 e0 03          	shl    $0x3,%rax
  400698:	48 89 c7             	mov    %rax,%rdi
  40069b:	e8 68 fe ff ff       	callq  400508 <malloc@plt>
  4006a0:	48 89 45 c8          	mov    %rax,0xffffffffffffffc8(%rbp)
  4006a4:	48 8b 45 c8          	mov    0xffffffffffffffc8(%rbp),%rax
  4006a8:	48 89 45 b8          	mov    %rax,0xffffffffffffffb8(%rbp)
  4006ac:	c7 45 e4 00 00 00 00 	movl   $0x0,0xffffffffffffffe4(%rbp)
  4006b3:	8b 45 e4             	mov    0xffffffffffffffe4(%rbp),%eax
  4006b6:	8b 55 e0             	mov    0xffffffffffffffe0(%rbp),%edx
  4006b9:	0f af 55 e0          	imul   0xffffffffffffffe0(%rbp),%edx
  4006bd:	3b c2                	cmp    %edx,%eax
  4006bf:	7d 25                	jge    4006e6 <main+0x84>
  4006c1:	8b 45 e4             	mov    0xffffffffffffffe4(%rbp),%eax
  4006c4:	f2 0f 2a c0          	cvtsi2sd %eax,%xmm0
  4006c8:	48 63 45 e4          	movslq 0xffffffffffffffe4(%rbp),%rax
  4006cc:	48 8b 55 b8          	mov    0xffffffffffffffb8(%rbp),%rdx
  4006d0:	f2 0f 11 04 c2       	movsd  %xmm0,(%rdx,%rax,8)
  4006d5:	ff 45 e4             	incl   0xffffffffffffffe4(%rbp)
  4006d8:	8b 45 e4             	mov    0xffffffffffffffe4(%rbp),%eax
  4006db:	8b 55 e0             	mov    0xffffffffffffffe0(%rbp),%edx
  4006de:	0f af 55 e0          	imul   0xffffffffffffffe0(%rbp),%edx
  4006e2:	3b c2                	cmp    %edx,%eax
  4006e4:	7c db                	jl     4006c1 <main+0x5f>
  4006e6:	e8 3d ff ff ff       	callq  400628 <gettime>
  4006eb:	f2 0f 11 45 d0       	movsd  %xmm0,0xffffffffffffffd0(%rbp)
  4006f0:	f2 0f 10 45 d0       	movsd  0xffffffffffffffd0(%rbp),%xmm0
  4006f5:	f2 0f 11 45 c0       	movsd  %xmm0,0xffffffffffffffc0(%rbp)
  4006fa:	c7 45 e4 00 00 00 00 	movl   $0x0,0xffffffffffffffe4(%rbp)
  400701:	8b 45 e4             	mov    0xffffffffffffffe4(%rbp),%eax
  400704:	8b 55 e0             	mov    0xffffffffffffffe0(%rbp),%edx
  400707:	3b c2                	cmp    %edx,%eax
  400709:	7c 0f                	jl     40071a <main+0xb8>
  40070b:	eb 65                	jmp    400772 <main+0x110>
  40070d:	ff 45 e4             	incl   0xffffffffffffffe4(%rbp)
  400710:	8b 45 e4             	mov    0xffffffffffffffe4(%rbp),%eax
  400713:	8b 55 e0             	mov    0xffffffffffffffe0(%rbp),%edx
  400716:	3b c2                	cmp    %edx,%eax
  400718:	7d 58                	jge    400772 <main+0x110>
  40071a:	c7 45 e8 00 00 00 00 	movl   $0x0,0xffffffffffffffe8(%rbp)
  400721:	8b 45 e8             	mov    0xffffffffffffffe8(%rbp),%eax
  400724:	8b 55 e0             	mov    0xffffffffffffffe0(%rbp),%edx
  400727:	3b c2                	cmp    %edx,%eax
  400729:	7d e2                	jge    40070d <main+0xab>
  40072b:	8b 45 e0             	mov    0xffffffffffffffe0(%rbp),%eax
  40072e:	0f af 45 e4          	imul   0xffffffffffffffe4(%rbp),%eax
  400732:	03 45 e8             	add    0xffffffffffffffe8(%rbp),%eax
  400735:	48 63 c0             	movslq %eax,%rax
  400738:	48 8b 55 b8          	mov    0xffffffffffffffb8(%rbp),%rdx
  40073c:	f2 0f 10 04 c2       	movsd  (%rdx,%rax,8),%xmm0
  400741:	f2 0f 10 0d 97 01 00 	movsd  407(%rip),%xmm1        # 4008e0 <_2il0floatpacket.3>
  400748:	00 
  400749:	f2 0f 59 c1          	mulsd  %xmm1,%xmm0
  40074d:	8b 45 e0             	mov    0xffffffffffffffe0(%rbp),%eax
  400750:	0f af 45 e4          	imul   0xffffffffffffffe4(%rbp),%eax
  400754:	03 45 e8             	add    0xffffffffffffffe8(%rbp),%eax
  400757:	48 63 c0             	movslq %eax,%rax
  40075a:	48 8b 55 b8          	mov    0xffffffffffffffb8(%rbp),%rdx
  40075e:	f2 0f 11 04 c2       	movsd  %xmm0,(%rdx,%rax,8)
  400763:	ff 45 e8             	incl   0xffffffffffffffe8(%rbp)
  400766:	8b 45 e8             	mov    0xffffffffffffffe8(%rbp),%eax
  400769:	8b 55 e0             	mov    0xffffffffffffffe0(%rbp),%edx
  40076c:	3b c2                	cmp    %edx,%eax
  40076e:	7c bb                	jl     40072b <main+0xc9>
  400770:	eb 9b                	jmp    40070d <main+0xab>
  400772:	e8 b1 fe ff ff       	callq  400628 <gettime>
  400777:	f2 0f 11 45 d8       	movsd  %xmm0,0xffffffffffffffd8(%rbp)
  40077c:	f2 0f 10 45 c0       	movsd  0xffffffffffffffc0(%rbp),%xmm0
  400781:	f2 0f 10 4d d8       	movsd  0xffffffffffffffd8(%rbp),%xmm1
  400786:	f2 0f 5c c8          	subsd  %xmm0,%xmm1
  40078a:	f2 0f 11 4d c0       	movsd  %xmm1,0xffffffffffffffc0(%rbp)
  40078f:	b8 e8 08 40 00       	mov    $0x4008e8,%eax
  400794:	8b 55 e0             	mov    0xffffffffffffffe0(%rbp),%edx
  400797:	f2 0f 10 45 c0       	movsd  0xffffffffffffffc0(%rbp),%xmm0
  40079c:	8b 4d e0             	mov    0xffffffffffffffe0(%rbp),%ecx
  40079f:	f2 0f 2a c9          	cvtsi2sd %ecx,%xmm1
  4007a3:	f2 0f 10 55 c0       	movsd  0xffffffffffffffc0(%rbp),%xmm2
  4007a8:	f2 0f 5e ca          	divsd  %xmm2,%xmm1
  4007ac:	8b 4d e0             	mov    0xffffffffffffffe0(%rbp),%ecx
  4007af:	f2 0f 2a d1          	cvtsi2sd %ecx,%xmm2
  4007b3:	f2 0f 59 ca          	mulsd  %xmm2,%xmm1
  4007b7:	48 89 c7             	mov    %rax,%rdi
  4007ba:	89 d6                	mov    %edx,%esi
  4007bc:	b8 02 00 00 00       	mov    $0x2,%eax
  4007c1:	e8 22 fd ff ff       	callq  4004e8 <printf@plt>
  4007c6:	48 8b 45 b8          	mov    0xffffffffffffffb8(%rbp),%rax
  4007ca:	48 89 c7             	mov    %rax,%rdi
  4007cd:	e8 56 fd ff ff       	callq  400528 <free@plt>
  4007d2:	33 c0                	xor    %eax,%eax
  4007d4:	c9                   	leaveq 
  4007d5:	c3                   	retq   
  4007d6:	90                   	nop    
  4007d7:	90                   	nop    
  4007d8:	90                   	nop    
  4007d9:	90                   	nop    
  4007da:	90                   	nop    
  4007db:	90                   	nop    
  4007dc:	90                   	nop    
  4007dd:	90                   	nop    
  4007de:	90                   	nop    
  4007df:	90                   	nop    

00000000004007e0 <__libc_csu_fini>:
  4007e0:	f3 c3                	repz retq 
  4007e2:	0f 1f 80 00 00 00 00 	nopl   0x0(%rax)
  4007e9:	0f 1f 80 00 00 00 00 	nopl   0x0(%rax)

00000000004007f0 <__libc_csu_init>:
  4007f0:	4c 89 64 24 e0       	mov    %r12,0xffffffffffffffe0(%rsp)
  4007f5:	4c 89 6c 24 e8       	mov    %r13,0xffffffffffffffe8(%rsp)
  4007fa:	4c 8d 25 13 02 20 00 	lea    2097683(%rip),%r12        # 600a14 <__fini_array_end>
  400801:	4c 89 74 24 f0       	mov    %r14,0xfffffffffffffff0(%rsp)
  400806:	4c 89 7c 24 f8       	mov    %r15,0xfffffffffffffff8(%rsp)
  40080b:	49 89 f6             	mov    %rsi,%r14
  40080e:	48 89 5c 24 d0       	mov    %rbx,0xffffffffffffffd0(%rsp)
  400813:	48 89 6c 24 d8       	mov    %rbp,0xffffffffffffffd8(%rsp)
  400818:	48 83 ec 38          	sub    $0x38,%rsp
  40081c:	41 89 ff             	mov    %edi,%r15d
  40081f:	49 89 d5             	mov    %rdx,%r13
  400822:	e8 99 fc ff ff       	callq  4004c0 <_init>
  400827:	48 8d 05 e6 01 20 00 	lea    2097638(%rip),%rax        # 600a14 <__fini_array_end>
  40082e:	49 29 c4             	sub    %rax,%r12
  400831:	49 c1 fc 03          	sar    $0x3,%r12
  400835:	4d 85 e4             	test   %r12,%r12
  400838:	74 1e                	je     400858 <__libc_csu_init+0x68>
  40083a:	31 ed                	xor    %ebp,%ebp
  40083c:	48 89 c3             	mov    %rax,%rbx
  40083f:	90                   	nop    
  400840:	48 83 c5 01          	add    $0x1,%rbp
  400844:	4c 89 ea             	mov    %r13,%rdx
  400847:	4c 89 f6             	mov    %r14,%rsi
  40084a:	44 89 ff             	mov    %r15d,%edi
  40084d:	ff 13                	callq  *(%rbx)
  40084f:	48 83 c3 08          	add    $0x8,%rbx
  400853:	49 39 ec             	cmp    %rbp,%r12
  400856:	75 e8                	jne    400840 <__libc_csu_init+0x50>
  400858:	48 8b 5c 24 08       	mov    0x8(%rsp),%rbx
  40085d:	48 8b 6c 24 10       	mov    0x10(%rsp),%rbp
  400862:	4c 8b 64 24 18       	mov    0x18(%rsp),%r12
  400867:	4c 8b 6c 24 20       	mov    0x20(%rsp),%r13
  40086c:	4c 8b 74 24 28       	mov    0x28(%rsp),%r14
  400871:	4c 8b 7c 24 30       	mov    0x30(%rsp),%r15
  400876:	48 83 c4 38          	add    $0x38,%rsp
  40087a:	c3                   	retq   
  40087b:	90                   	nop    
  40087c:	90                   	nop    
  40087d:	90                   	nop    
  40087e:	90                   	nop    
  40087f:	90                   	nop    

0000000000400880 <__do_global_ctors_aux>:
  400880:	55                   	push   %rbp
  400881:	48 89 e5             	mov    %rsp,%rbp
  400884:	53                   	push   %rbx
  400885:	bb 18 0a 60 00       	mov    $0x600a18,%ebx
  40088a:	48 83 ec 08          	sub    $0x8,%rsp
  40088e:	48 8b 05 83 01 20 00 	mov    2097539(%rip),%rax        # 600a18 <__CTOR_LIST__>
  400895:	48 83 f8 ff          	cmp    $0xffffffffffffffff,%rax
  400899:	74 14                	je     4008af <__do_global_ctors_aux+0x2f>
  40089b:	0f 1f 44 00 00       	nopl   0x0(%rax,%rax,1)
  4008a0:	48 83 eb 08          	sub    $0x8,%rbx
  4008a4:	ff d0                	callq  *%rax
  4008a6:	48 8b 03             	mov    (%rbx),%rax
  4008a9:	48 83 f8 ff          	cmp    $0xffffffffffffffff,%rax
  4008ad:	75 f1                	jne    4008a0 <__do_global_ctors_aux+0x20>
  4008af:	48 83 c4 08          	add    $0x8,%rsp
  4008b3:	5b                   	pop    %rbx
  4008b4:	c9                   	leaveq 
  4008b5:	c3                   	retq   
  4008b6:	90                   	nop    
  4008b7:	90                   	nop    
Disassembly of section .fini:

00000000004008b8 <_fini>:
  4008b8:	48 83 ec 08          	sub    $0x8,%rsp
  4008bc:	e8 df fc ff ff       	callq  4005a0 <__do_global_dtors_aux>
  4008c1:	48 83 c4 08          	add    $0x8,%rsp
  4008c5:	c3                   	retq   